; Function Attrs: mustprogress uwtable
define void @_ZN10open_spiel13BotRegisterer11RegisterBotERKNSt7__cxx1112basic_stringIcSt11char_traitsIcESaIcEEESt10unique_ptrINS_10BotFactoryESt14default_deleteISA_EE(ptr noundef nonnull align 8 dereferenceable(32) %0, ptr nocapture noundef %1) local_unnamed_addr #3 align 2 personality ptr @__gxx_personality_v0 {
  %3 = load atomic i8, ptr @_ZGVZN10open_spiel13BotRegisterer9factoriesB5cxx11EvE4implB5cxx11 acquire, align 8
  %4 = icmp eq i8 %3, 0
  br i1 %4, label %5, label %_ZN10open_spiel13BotRegisterer9factoriesB5cxx11Ev.exit, !prof !24

5:                                                ; preds = %2
  %6 = tail call i32 @__cxa_guard_acquire(ptr nonnull @_ZGVZN10open_spiel13BotRegisterer9factoriesB5cxx11EvE4implB5cxx11) #23
  %.not.i = icmp eq i32 %6, 0
  br i1 %.not.i, label %_ZN10open_spiel13BotRegisterer9factoriesB5cxx11Ev.exit, label %7

7:                                                ; preds = %5
  store i32 0, ptr getelementptr inbounds (i8, ptr @_ZZN10open_spiel13BotRegisterer9factoriesB5cxx11EvE4implB5cxx11, i64 8), align 8
  store ptr null, ptr getelementptr inbounds (i8, ptr @_ZZN10open_spiel13BotRegisterer9factoriesB5cxx11EvE4implB5cxx11, i64 16), align 8
  store ptr getelementptr inbounds (i8, ptr @_ZZN10open_spiel13BotRegisterer9factoriesB5cxx11EvE4implB5cxx11, i64 8), ptr getelementptr inbounds (i8, ptr @_ZZN10open_spiel13BotRegisterer9factoriesB5cxx11EvE4implB5cxx11, i64 24), align 8
  store ptr getelementptr inbounds (i8, ptr @_ZZN10open_spiel13BotRegisterer9factoriesB5cxx11EvE4implB5cxx11, i64 8), ptr getelementptr inbounds (i8, ptr @_ZZN10open_spiel13BotRegisterer9factoriesB5cxx11EvE4implB5cxx11, i64 32), align 8
  store i64 0, ptr getelementptr inbounds (i8, ptr @_ZZN10open_spiel13BotRegisterer9factoriesB5cxx11EvE4implB5cxx11, i64 40), align 8
  %8 = tail call i32 @__cxa_atexit(ptr nonnull @_ZNSt3mapINSt7__cxx1112basic_stringIcSt11char_traitsIcESaIcEEESt10unique_ptrIN10open_spiel10BotFactoryESt14default_deleteIS8_EESt4lessIS5_ESaISt4pairIKS5_SB_EEED2Ev, ptr nonnull @_ZZN10open_spiel13BotRegisterer9factoriesB5cxx11EvE4implB5cxx11, ptr nonnull @__dso_handle) #23
  tail call void @__cxa_guard_release(ptr nonnull @_ZGVZN10open_spiel13BotRegisterer9factoriesB5cxx11EvE4implB5cxx11) #23
  br label %_ZN10open_spiel13BotRegisterer9factoriesB5cxx11Ev.exit

_ZN10open_spiel13BotRegisterer9factoriesB5cxx11Ev.exit: ; preds = %2, %5, %7
  %9 = tail call noundef nonnull align 8 dereferenceable(8) ptr @_ZNSt3mapINSt7__cxx1112basic_stringIcSt11char_traitsIcESaIcEEESt10unique_ptrIN10open_spiel10BotFactoryESt14default_deleteIS8_EESt4lessIS5_ESaISt4pairIKS5_SB_EEEixERSF_(ptr noundef nonnull align 8 dereferenceable(48) @_ZZN10open_spiel13BotRegisterer9factoriesB5cxx11EvE4implB5cxx11, ptr noundef nonnull align 8 dereferenceable(32) %0)
  %10 = load ptr, ptr %1, align 8
  store ptr null, ptr %1, align 8
  %11 = load ptr, ptr %9, align 8
  store ptr %10, ptr %9, align 8
  %.not.i.i.i.i = icmp eq ptr %11, null
  br i1 %.not.i.i.i.i, label %_ZNSt10unique_ptrIN10open_spiel10BotFactoryESt14default_deleteIS1_EEaSEOS4_.exit, label %_ZNKSt14default_deleteIN10open_spiel10BotFactoryEEclEPS1_.exit.i.i.i.i

_ZNKSt14default_deleteIN10open_spiel10BotFactoryEEclEPS1_.exit.i.i.i.i: ; preds = %_ZN10open_spiel13BotRegisterer9factoriesB5cxx11Ev.exit
  %12 = load ptr, ptr %11, align 8
  %13 = getelementptr inbounds i8, ptr %12, i64 8
  %14 = load ptr, ptr %13, align 8
  tail call void %14(ptr noundef nonnull align 8 dereferenceable(8) %11) #23
  br label %_ZNSt10unique_ptrIN10open_spiel10BotFactoryESt14default_deleteIS1_EEaSEOS4_.exit

_ZNSt10unique_ptrIN10open_spiel10BotFactoryESt14default_deleteIS1_EEaSEOS4_.exit: ; preds = %_ZN10open_spiel13BotRegisterer9factoriesB5cxx11Ev.exit, %_ZNKSt14default_deleteIN10open_spiel10BotFactoryEEclEPS1_.exit.i.i.i.i
  ret void
}